; Function Attrs: mustprogress uwtable
define noundef zeroext i1 @_ZNK2cv4rgbd12RgbdOdometry11computeImplERKNS_3PtrINS0_13OdometryFrameEEES6_RKNS_12_OutputArrayERKNS_3MatE(ptr noundef nonnull align 8 dereferenceable(352) %0, ptr noundef nonnull readonly align 8 captures(none) dereferenceable(16) %1, ptr noundef nonnull readonly align 8 captures(none) dereferenceable(16) %2, ptr noundef nonnull align 8 dereferenceable(24) %3, ptr noundef nonnull align 8 dereferenceable(96) %4) unnamed_addr #4 align 2 personality ptr @__gxx_personality_v0 {
  %6 = alloca %"class.cv::_OutputArray", align 8
  %7 = alloca %"class.std::vector.35", align 8
  %8 = getelementptr inbounds nuw i8, ptr %0, i64 24
  %9 = load double, ptr %8, align 8, !tbaa !107
  call void @llvm.lifetime.start.p0(i64 24, ptr nonnull %7) #31
  %10 = getelementptr inbounds nuw i8, ptr %0, i64 32
  tail call void @llvm.experimental.noalias.scope.decl(metadata !189)
  call void @llvm.memset.p0.i64(ptr noundef nonnull align 8 dereferenceable(24) %7, i8 0, i64 24, i1 false), !alias.scope !189
  call void @llvm.lifetime.start.p0(i64 24, ptr nonnull %6) #31, !noalias !189
  %11 = getelementptr inbounds nuw i8, ptr %6, i64 8
  %12 = getelementptr inbounds nuw i8, ptr %6, i64 16
  store i64 0, ptr %12, align 8, !noalias !189
  store i32 -2113732604, ptr %6, align 8, !tbaa !118, !noalias !189
  store ptr %7, ptr %11, align 8, !tbaa !121, !noalias !189
  invoke void @_ZNK2cv3Mat6copyToERKNS_12_OutputArrayE(ptr noundef nonnull align 8 dereferenceable(96) %10, ptr noundef nonnull align 8 dereferenceable(24) %6)
          to label %_ZNK2cv3MatcvSt6vectorIT_SaIS2_EEIiEEv.exit unwind label %13

13:                                               ; preds = %5
  %14 = landingpad { ptr, i32 }
          cleanup
  call void @llvm.lifetime.end.p0(i64 24, ptr nonnull %6) #31, !noalias !189
  %15 = load ptr, ptr %7, align 8, !tbaa !126, !alias.scope !189
  %.not.i.i.i.i = icmp eq ptr %15, null
  br i1 %.not.i.i.i.i, label %common.resume, label %16

16:                                               ; preds = %13
  call void @_ZdlPv(ptr noundef nonnull %15) #30
  br label %common.resume

common.resume:                                    ; preds = %13, %16, %_ZNSt6vectorIiSaIiEED2Ev.exit7
  %common.resume.op = phi { ptr, i32 } [ %30, %_ZNSt6vectorIiSaIiEED2Ev.exit7 ], [ %14, %16 ], [ %14, %13 ]
  resume { ptr, i32 } %common.resume.op

_ZNK2cv3MatcvSt6vectorIT_SaIS2_EEIiEEv.exit:      ; preds = %5
  %17 = fptrunc double %9 to float
  %18 = getelementptr inbounds nuw i8, ptr %0, i64 232
  call void @llvm.lifetime.end.p0(i64 24, ptr nonnull %6) #31, !noalias !189
  %19 = getelementptr inbounds nuw i8, ptr %0, i64 336
  %20 = load double, ptr %19, align 8, !tbaa !110
  %21 = getelementptr inbounds nuw i8, ptr %0, i64 344
  %22 = load double, ptr %21, align 8, !tbaa !111
  %23 = getelementptr inbounds nuw i8, ptr %0, i64 328
  %24 = load i32, ptr %23, align 8, !tbaa !109
  %25 = invoke fastcc noundef zeroext i1 @_ZN2cv4rgbdL19RGBDICPOdometryImplERKNS_12_OutputArrayERKNS_3MatERKNS_3PtrINS0_13OdometryFrameEEESB_S6_fRKSt6vectorIiSaIiEEddii(ptr noundef nonnull align 8 dereferenceable(24) %3, ptr noundef nonnull align 8 dereferenceable(96) %4, ptr noundef nonnull align 8 dereferenceable(16) %1, ptr noundef nonnull align 8 dereferenceable(16) %2, ptr noundef nonnull align 8 dereferenceable(96) %18, float noundef %17, ptr noundef nonnull align 8 dereferenceable(24) %7, double noundef %20, double noundef %22, i32 noundef 1, i32 noundef %24)
          to label %26 unwind label %29

26:                                               ; preds = %_ZNK2cv3MatcvSt6vectorIT_SaIS2_EEIiEEv.exit
  %27 = load ptr, ptr %7, align 8, !tbaa !126
  %.not.i.i.i = icmp eq ptr %27, null
  br i1 %.not.i.i.i, label %_ZNSt6vectorIiSaIiEED2Ev.exit, label %28

28:                                               ; preds = %26
  call void @_ZdlPv(ptr noundef nonnull %27) #30
  br label %_ZNSt6vectorIiSaIiEED2Ev.exit

_ZNSt6vectorIiSaIiEED2Ev.exit:                    ; preds = %26, %28
  call void @llvm.lifetime.end.p0(i64 24, ptr nonnull %7) #31
  ret i1 %25

29:                                               ; preds = %_ZNK2cv3MatcvSt6vectorIT_SaIS2_EEIiEEv.exit
  %30 = landingpad { ptr, i32 }
          cleanup
  %31 = load ptr, ptr %7, align 8, !tbaa !126
  %.not.i.i.i6 = icmp eq ptr %31, null
  br i1 %.not.i.i.i6, label %_ZNSt6vectorIiSaIiEED2Ev.exit7, label %32

32:                                               ; preds = %29
  call void @_ZdlPv(ptr noundef nonnull %31) #30
  br label %_ZNSt6vectorIiSaIiEED2Ev.exit7

_ZNSt6vectorIiSaIiEED2Ev.exit7:                   ; preds = %29, %32
  call void @llvm.lifetime.end.p0(i64 24, ptr nonnull %7) #31
  br label %common.resume
}